target datalayout = "e-m:e-p270:32:32-p271:32:32-p272:64:64-i64:64-i128:128-f80:128-n8:16:32:64-S128"
target triple = "x86_64-pc-linux-gnu"

%struct.SurfaceDataRasInfo = type { %struct.SurfaceDataBounds, ptr, i32, i32, i32, i32, ptr, ptr, ptr, ptr, ptr, ptr, i32, %union.anon.0 }
%struct.SurfaceDataBounds = type { i32, i32, i32, i32 }
%union.anon.0 = type { ptr, [56 x i8] }

@mul8table = external global [256 x [256 x i8]], align 16

; Function Attrs: nounwind uwtable
define hidden void @ByteIndexedBmToIntArgbPreXparBgCopy(ptr noundef %0, ptr noundef %1, i32 noundef %2, i32 noundef %3, i32 noundef %4, ptr noundef %5, ptr noundef %6, ptr noundef %7, ptr noundef %8) #1 {
  %10 = alloca ptr, align 8
  %11 = alloca ptr, align 8
  %12 = alloca i32, align 4
  %13 = alloca i32, align 4
  %14 = alloca i32, align 4
  %15 = alloca ptr, align 8
  %16 = alloca ptr, align 8
  %17 = alloca ptr, align 8
  %18 = alloca ptr, align 8
  %19 = alloca ptr, align 8
  %20 = alloca ptr, align 8
  %21 = alloca ptr, align 8
  %22 = alloca i32, align 4
  %23 = alloca i32, align 4
  %24 = alloca i32, align 4
  %25 = alloca i32, align 4
  %26 = alloca i32, align 4
  %27 = alloca i32, align 4
  %28 = alloca i32, align 4
  %29 = alloca i32, align 4
  store ptr %0, ptr %10, align 8
  store ptr %1, ptr %11, align 8
  store i32 %2, ptr %12, align 4
  store i32 %3, ptr %13, align 4
  store i32 %4, ptr %14, align 4
  store ptr %5, ptr %15, align 8
  store ptr %6, ptr %16, align 8
  store ptr %7, ptr %17, align 8
  store ptr %8, ptr %18, align 8
  br label %30

30:                                               ; preds = %9
  %31 = load ptr, ptr %15, align 8
  %32 = getelementptr inbounds %struct.SurfaceDataRasInfo, ptr %31, i32 0, i32 6
  %33 = load ptr, ptr %32, align 8
  store ptr %33, ptr %19, align 8
  br label %34

34:                                               ; preds = %30
  br label %35

35:                                               ; preds = %34
  %36 = load ptr, ptr %10, align 8
  store ptr %36, ptr %20, align 8
  %37 = load ptr, ptr %11, align 8
  store ptr %37, ptr %21, align 8
  %38 = load ptr, ptr %15, align 8
  %39 = getelementptr inbounds %struct.SurfaceDataRasInfo, ptr %38, i32 0, i32 4
  %40 = load i32, ptr %39, align 8
  store i32 %40, ptr %22, align 4
  %41 = load ptr, ptr %16, align 8
  %42 = getelementptr inbounds %struct.SurfaceDataRasInfo, ptr %41, i32 0, i32 4
  %43 = load i32, ptr %42, align 8
  store i32 %43, ptr %23, align 4
  %44 = load i32, ptr %12, align 4
  %45 = mul i32 %44, 1
  %46 = load i32, ptr %22, align 4
  %47 = sub i32 %46, %45
  store i32 %47, ptr %22, align 4
  %48 = load i32, ptr %12, align 4
  %49 = mul i32 %48, 4
  %50 = load i32, ptr %23, align 4
  %51 = sub i32 %50, %49
  store i32 %51, ptr %23, align 4
  br label %52

52:                                               ; preds = %158, %35
  %53 = load i32, ptr %12, align 4
  store i32 %53, ptr %24, align 4
  br label %54

54:                                               ; preds = %141, %52
  br label %55

55:                                               ; preds = %54
  %56 = load ptr, ptr %19, align 8
  %57 = load ptr, ptr %20, align 8
  %58 = getelementptr inbounds i8, ptr %57, i64 0
  %59 = load i8, ptr %58, align 1
  %60 = zext i8 %59 to i64
  %61 = getelementptr inbounds i32, ptr %56, i64 %60
  %62 = load i32, ptr %61, align 4
  store i32 %62, ptr %25, align 4
  %63 = load i32, ptr %25, align 4
  %64 = icmp slt i32 %63, 0
  br i1 %64, label %65, label %127

65:                                               ; preds = %55
  br label %66

66:                                               ; preds = %65
  %67 = load i32, ptr %25, align 4
  %68 = ashr i32 %67, 24
  %69 = add nsw i32 %68, 1
  %70 = icmp eq i32 %69, 0
  br i1 %70, label %71, label %75

71:                                               ; preds = %66
  %72 = load i32, ptr %25, align 4
  %73 = load ptr, ptr %21, align 8
  %74 = getelementptr inbounds i32, ptr %73, i64 0
  store i32 %72, ptr %74, align 4
  br label %125

75:                                               ; preds = %66
  br label %76

76:                                               ; preds = %75
  %77 = load i32, ptr %25, align 4
  %78 = and i32 %77, 255
  store i32 %78, ptr %29, align 4
  %79 = load i32, ptr %25, align 4
  %80 = ashr i32 %79, 8
  %81 = and i32 %80, 255
  store i32 %81, ptr %28, align 4
  %82 = load i32, ptr %25, align 4
  %83 = ashr i32 %82, 16
  %84 = and i32 %83, 255
  store i32 %84, ptr %27, align 4
  %85 = load i32, ptr %25, align 4
  %86 = ashr i32 %85, 24
  %87 = and i32 %86, 255
  store i32 %87, ptr %26, align 4
  br label %88

88:                                               ; preds = %76
  %89 = load i32, ptr %26, align 4
  %90 = sext i32 %89 to i64
  %91 = getelementptr inbounds [256 x [256 x i8]], ptr @mul8table, i64 0, i64 %90
  %92 = load i32, ptr %27, align 4
  %93 = sext i32 %92 to i64
  %94 = getelementptr inbounds [256 x i8], ptr %91, i64 0, i64 %93
  %95 = load i8, ptr %94, align 1
  %96 = zext i8 %95 to i32
  store i32 %96, ptr %27, align 4
  %97 = load i32, ptr %26, align 4
  %98 = sext i32 %97 to i64
  %99 = getelementptr inbounds [256 x [256 x i8]], ptr @mul8table, i64 0, i64 %98
  %100 = load i32, ptr %28, align 4
  %101 = sext i32 %100 to i64
  %102 = getelementptr inbounds [256 x i8], ptr %99, i64 0, i64 %101
  %103 = load i8, ptr %102, align 1
  %104 = zext i8 %103 to i32
  store i32 %104, ptr %28, align 4
  %105 = load i32, ptr %26, align 4
  %106 = sext i32 %105 to i64
  %107 = getelementptr inbounds [256 x [256 x i8]], ptr @mul8table, i64 0, i64 %106
  %108 = load i32, ptr %29, align 4
  %109 = sext i32 %108 to i64
  %110 = getelementptr inbounds [256 x i8], ptr %107, i64 0, i64 %109
  %111 = load i8, ptr %110, align 1
  %112 = zext i8 %111 to i32
  store i32 %112, ptr %29, align 4
  %113 = load i32, ptr %26, align 4
  %114 = shl i32 %113, 8
  %115 = load i32, ptr %27, align 4
  %116 = or i32 %114, %115
  %117 = shl i32 %116, 8
  %118 = load i32, ptr %28, align 4
  %119 = or i32 %117, %118
  %120 = shl i32 %119, 8
  %121 = load i32, ptr %29, align 4
  %122 = or i32 %120, %121
  %123 = load ptr, ptr %21, align 8
  %124 = getelementptr inbounds i32, ptr %123, i64 0
  store i32 %122, ptr %124, align 4
  br label %125

125:                                              ; preds = %88, %71
  br label %126

126:                                              ; preds = %125
  br label %131

127:                                              ; preds = %55
  %128 = load i32, ptr %14, align 4
  %129 = load ptr, ptr %21, align 8
  %130 = getelementptr inbounds i32, ptr %129, i64 0
  store i32 %128, ptr %130, align 4
  br label %131

131:                                              ; preds = %127, %126
  br label %132

132:                                              ; preds = %131
  %133 = load ptr, ptr %20, align 8
  %134 = ptrtoint ptr %133 to i64
  %135 = add nsw i64 %134, 1
  %136 = inttoptr i64 %135 to ptr
  store ptr %136, ptr %20, align 8
  %137 = load ptr, ptr %21, align 8
  %138 = ptrtoint ptr %137 to i64
  %139 = add nsw i64 %138, 4
  %140 = inttoptr i64 %139 to ptr
  store ptr %140, ptr %21, align 8
  br label %141

141:                                              ; preds = %132
  %142 = load i32, ptr %24, align 4
  %143 = add i32 %142, -1
  store i32 %143, ptr %24, align 4
  %144 = icmp ugt i32 %143, 0
  br i1 %144, label %54, label %145, !llvm.loop !35

145:                                              ; preds = %141
  %146 = load ptr, ptr %20, align 8
  %147 = ptrtoint ptr %146 to i64
  %148 = load i32, ptr %22, align 4
  %149 = sext i32 %148 to i64
  %150 = add nsw i64 %147, %149
  %151 = inttoptr i64 %150 to ptr
  store ptr %151, ptr %20, align 8
  %152 = load ptr, ptr %21, align 8
  %153 = ptrtoint ptr %152 to i64
  %154 = load i32, ptr %23, align 4
  %155 = sext i32 %154 to i64
  %156 = add nsw i64 %153, %155
  %157 = inttoptr i64 %156 to ptr
  store ptr %157, ptr %21, align 8
  br label %158

158:                                              ; preds = %145
  %159 = load i32, ptr %13, align 4
  %160 = add i32 %159, -1
  store i32 %160, ptr %13, align 4
  %161 = icmp ugt i32 %160, 0
  br i1 %161, label %52, label %162, !llvm.loop !36

162:                                              ; preds = %158
  br label %163

163:                                              ; preds = %162
  ret void
}