; Function Attrs: nofree norecurse nosync nounwind memory(readwrite, inaccessiblemem: none) uwtable
define hidden void @ByteIndexedBmToIntArgbPreXparBgCopy(ptr noundef %0, ptr noundef %1, i32 noundef %2, i32 noundef %3, i32 noundef %4, ptr nocapture noundef readonly %5, ptr nocapture noundef readonly %6, ptr nocapture readnone %7, ptr nocapture readnone %8) #1 {
  %10 = getelementptr inbounds i8, ptr %5, i64 40
  %11 = load ptr, ptr %10, align 8
  %12 = getelementptr inbounds i8, ptr %5, i64 32
  %13 = load i32, ptr %12, align 8
  %14 = getelementptr inbounds i8, ptr %6, i64 32
  %15 = load i32, ptr %14, align 8
  %16 = sub i32 %13, %2
  %17 = shl i32 %2, 2
  %18 = sub i32 %15, %17
  %19 = sext i32 %16 to i64
  %20 = sext i32 %18 to i64
  br label %21

21:                                               ; preds = %64, %9
  %.041 = phi ptr [ %1, %9 ], [ %68, %64 ]
  %.040 = phi ptr [ %0, %9 ], [ %66, %64 ]
  %.0 = phi i32 [ %3, %9 ], [ %69, %64 ]
  br label %22

22:                                               ; preds = %56, %21
  %.043 = phi i32 [ %2, %21 ], [ %63, %56 ]
  %.142 = phi ptr [ %.041, %21 ], [ %62, %56 ]
  %.1 = phi ptr [ %.040, %21 ], [ %59, %56 ]
  %23 = load i8, ptr %.1, align 1
  %24 = zext i8 %23 to i64
  %25 = getelementptr inbounds i32, ptr %11, i64 %24
  %26 = load i32, ptr %25, align 4
  %27 = icmp slt i32 %26, 0
  br i1 %27, label %28, label %56

28:                                               ; preds = %22
  %29 = icmp ugt i32 %26, -16777217
  br i1 %29, label %56, label %30

30:                                               ; preds = %28
  %31 = and i32 %26, 255
  %32 = lshr i32 %26, 8
  %33 = and i32 %32, 255
  %34 = lshr i32 %26, 16
  %35 = and i32 %34, 255
  %36 = lshr i32 %26, 24
  %37 = zext nneg i32 %36 to i64
  %38 = zext nneg i32 %35 to i64
  %39 = getelementptr inbounds [256 x [256 x i8]], ptr @mul8table, i64 0, i64 %37, i64 %38
  %40 = load i8, ptr %39, align 1
  %41 = zext i8 %40 to i32
  %42 = zext nneg i32 %33 to i64
  %43 = getelementptr inbounds [256 x [256 x i8]], ptr @mul8table, i64 0, i64 %37, i64 %42
  %44 = load i8, ptr %43, align 1
  %45 = zext i8 %44 to i32
  %46 = zext nneg i32 %31 to i64
  %47 = getelementptr inbounds [256 x [256 x i8]], ptr @mul8table, i64 0, i64 %37, i64 %46
  %48 = load i8, ptr %47, align 1
  %49 = zext i8 %48 to i32
  %50 = shl nuw nsw i32 %36, 16
  %51 = shl nuw nsw i32 %41, 8
  %52 = or disjoint i32 %51, %50
  %53 = or disjoint i32 %52, %45
  %54 = shl nuw i32 %53, 8
  %55 = or disjoint i32 %54, %49
  br label %56

56:                                               ; preds = %22, %28, %30
  %.sink = phi i32 [ %55, %30 ], [ %26, %28 ], [ %4, %22 ]
  store i32 %.sink, ptr %.142, align 4
  %57 = ptrtoint ptr %.1 to i64
  %58 = add nsw i64 %57, 1
  %59 = inttoptr i64 %58 to ptr
  %60 = ptrtoint ptr %.142 to i64
  %61 = add nsw i64 %60, 4
  %62 = inttoptr i64 %61 to ptr
  %63 = add i32 %.043, -1
  %.not = icmp eq i32 %63, 0
  br i1 %.not, label %64, label %22, !llvm.loop !35

64:                                               ; preds = %56
  %65 = add nsw i64 %58, %19
  %66 = inttoptr i64 %65 to ptr
  %67 = add nsw i64 %61, %20
  %68 = inttoptr i64 %67 to ptr
  %69 = add i32 %.0, -1
  %.not47 = icmp eq i32 %69, 0
  br i1 %.not47, label %70, label %21, !llvm.loop !36

70:                                               ; preds = %64
  ret void
}